target datalayout = "e-m:e-p270:32:32-p271:32:32-p272:64:64-i64:64-i128:128-f80:128-n8:16:32:64-S128"
target triple = "x86_64-pc-linux-gnu"

%class.app = type { %class.expr, ptr, i32, %struct.app_flags, [0 x ptr] }
%class.expr = type { %class.ast }
%class.ast = type { i32, i32, i32, i32 }
%struct.app_flags = type <{ i16, i8, i8 }>
%"class.smt::relevancy_eh" = type { ptr }
%"class.smt::relevancy_propagator" = type { ptr, ptr }
%"class.smt::ite_term_relevancy_eh" = type { %"class.smt::relevancy_eh", ptr, ptr, ptr }

; Function Attrs: mustprogress nounwind uwtable
define linkonce_odr hidden noundef nonnull align 8 dereferenceable(10544) ptr @_ZN3smt20relevancy_propagator11get_contextEv(ptr noundef nonnull align 8 dereferenceable(16) %0) #4 comdat align 2 {
  %2 = alloca ptr, align 8
  store ptr %0, ptr %2, align 8, !tbaa !30
  %3 = load ptr, ptr %2, align 8
  %4 = getelementptr inbounds nuw %"class.smt::relevancy_propagator", ptr %3, i32 0, i32 1
  %5 = load ptr, ptr %4, align 8, !tbaa !59
  ret ptr %5
}

; Function Attrs: mustprogress nounwind uwtable
define linkonce_odr hidden noundef ptr @_ZNK3app7get_argEj(ptr noundef nonnull align 8 dereferenceable(32) %0, i32 noundef %1) #4 comdat align 2 {
  %3 = alloca ptr, align 8
  %4 = alloca i32, align 4
  store ptr %0, ptr %3, align 8, !tbaa !36
  store i32 %1, ptr %4, align 4, !tbaa !8
  %5 = load ptr, ptr %3, align 8
  %6 = getelementptr inbounds nuw %class.app, ptr %5, i32 0, i32 4
  %7 = load i32, ptr %4, align 4, !tbaa !8
  %8 = zext i32 %7 to i64
  %9 = getelementptr inbounds nuw [0 x ptr], ptr %6, i64 0, i64 %8
  %10 = load ptr, ptr %9, align 8, !tbaa !32
  ret ptr %10
}

; Function Attrs: mustprogress uwtable
define hidden void @_ZN3smt21ite_term_relevancy_ehclERNS_20relevancy_propagatorE(ptr noundef nonnull align 8 dereferenceable(32) %0, ptr noundef nonnull align 8 dereferenceable(16) %1) unnamed_addr #6 align 2 {
  %3 = alloca ptr, align 8
  %4 = alloca ptr, align 8
  store ptr %0, ptr %3, align 8, !tbaa !561
  store ptr %1, ptr %4, align 8, !tbaa !30
  %5 = load ptr, ptr %3, align 8
  %6 = load ptr, ptr %4, align 8, !tbaa !30
  %7 = getelementptr inbounds nuw %"class.smt::ite_term_relevancy_eh", ptr %5, i32 0, i32 1
  %8 = load ptr, ptr %7, align 8, !tbaa !563
  %9 = load ptr, ptr %6, align 8, !tbaa !34
  %10 = getelementptr inbounds ptr, ptr %9, i64 7
  %11 = load ptr, ptr %10, align 8
  %12 = call noundef zeroext i1 %11(ptr noundef nonnull align 8 dereferenceable(16) %6, ptr noundef %8)
  br i1 %12, label %14, label %13

13:                                               ; preds = %2
  br label %42

14:                                               ; preds = %2
  %15 = load ptr, ptr %4, align 8, !tbaa !30
  %16 = getelementptr inbounds nuw %"class.smt::ite_term_relevancy_eh", ptr %5, i32 0, i32 1
  %17 = load ptr, ptr %16, align 8, !tbaa !563
  %18 = call noundef ptr @_ZNK3app7get_argEj(ptr noundef nonnull align 8 dereferenceable(32) %17, i32 noundef 0)
  %19 = load ptr, ptr %15, align 8, !tbaa !34
  %20 = getelementptr inbounds ptr, ptr %19, i64 6
  %21 = load ptr, ptr %20, align 8
  call void %21(ptr noundef nonnull align 8 dereferenceable(16) %15, ptr noundef %18)
  %22 = load ptr, ptr %4, align 8, !tbaa !30
  %23 = call noundef nonnull align 8 dereferenceable(10544) ptr @_ZN3smt20relevancy_propagator11get_contextEv(ptr noundef nonnull align 8 dereferenceable(16) %22)
  %24 = getelementptr inbounds nuw %"class.smt::ite_term_relevancy_eh", ptr %5, i32 0, i32 1
  %25 = load ptr, ptr %24, align 8, !tbaa !563
  %26 = call noundef ptr @_ZNK3app7get_argEj(ptr noundef nonnull align 8 dereferenceable(32) %25, i32 noundef 0)
  %27 = call noundef i32 @_ZNK3smt7context14get_assignmentEP4expr(ptr noundef nonnull align 8 dereferenceable(10544) %23, ptr noundef %26)
  switch i32 %27, label %42 [
    i32 -1, label %28
    i32 0, label %42
    i32 1, label %35
  ]

28:                                               ; preds = %14
  %29 = load ptr, ptr %4, align 8, !tbaa !30
  %30 = getelementptr inbounds nuw %"class.smt::ite_term_relevancy_eh", ptr %5, i32 0, i32 3
  %31 = load ptr, ptr %30, align 8, !tbaa !566
  %32 = load ptr, ptr %29, align 8, !tbaa !34
  %33 = getelementptr inbounds ptr, ptr %32, i64 6
  %34 = load ptr, ptr %33, align 8
  call void %34(ptr noundef nonnull align 8 dereferenceable(16) %29, ptr noundef %31)
  br label %42

35:                                               ; preds = %14
  %36 = load ptr, ptr %4, align 8, !tbaa !30
  %37 = getelementptr inbounds nuw %"class.smt::ite_term_relevancy_eh", ptr %5, i32 0, i32 2
  %38 = load ptr, ptr %37, align 8, !tbaa !565
  %39 = load ptr, ptr %36, align 8, !tbaa !34
  %40 = getelementptr inbounds ptr, ptr %39, i64 6
  %41 = load ptr, ptr %40, align 8
  call void %41(ptr noundef nonnull align 8 dereferenceable(16) %36, ptr noundef %38)
  br label %42

42:                                               ; preds = %13, %14, %35, %14, %28
  ret void
}