; Function Attrs: mustprogress uwtable
define hidden void @_ZN3smt21ite_term_relevancy_ehclERNS_20relevancy_propagatorE(ptr noundef nonnull readonly align 8 captures(none) dereferenceable(32) %0, ptr noundef nonnull align 8 dereferenceable(16) %1) unnamed_addr #4 align 2 {
  %3 = getelementptr inbounds nuw i8, ptr %0, i64 8
  %4 = load ptr, ptr %3, align 8, !tbaa !534
  %5 = load ptr, ptr %1, align 8, !tbaa !3
  %6 = getelementptr inbounds nuw i8, ptr %5, i64 56
  %7 = load ptr, ptr %6, align 8
  %8 = tail call noundef zeroext i1 %7(ptr noundef nonnull align 8 dereferenceable(16) %1, ptr noundef %4)
  br i1 %8, label %9, label %28

9:                                                ; preds = %2
  %10 = load ptr, ptr %3, align 8, !tbaa !534
  %11 = getelementptr inbounds nuw i8, ptr %10, i64 32
  %12 = load ptr, ptr %11, align 8, !tbaa !15
  %13 = load ptr, ptr %1, align 8, !tbaa !3
  %14 = getelementptr inbounds nuw i8, ptr %13, i64 48
  %15 = load ptr, ptr %14, align 8
  tail call void %15(ptr noundef nonnull align 8 dereferenceable(16) %1, ptr noundef %12)
  %16 = getelementptr inbounds nuw i8, ptr %1, i64 8
  %17 = load ptr, ptr %16, align 8, !tbaa !28
  %18 = load ptr, ptr %3, align 8, !tbaa !534
  %19 = getelementptr inbounds nuw i8, ptr %18, i64 32
  %20 = load ptr, ptr %19, align 8, !tbaa !15
  %21 = tail call noundef i32 @_ZNK3smt7context14get_assignmentEP4expr(ptr noundef nonnull align 8 dereferenceable(10544) %17, ptr noundef %20)
  switch i32 %21, label %28 [
    i32 -1, label %.sink.split
    i32 1, label %22
  ]

22:                                               ; preds = %9
  br label %.sink.split

.sink.split:                                      ; preds = %9, %22
  %.sink = phi i64 [ 16, %22 ], [ 24, %9 ]
  %23 = getelementptr inbounds nuw i8, ptr %0, i64 %.sink
  %24 = load ptr, ptr %23, align 8, !tbaa !536
  %25 = load ptr, ptr %1, align 8, !tbaa !3
  %26 = getelementptr inbounds nuw i8, ptr %25, i64 48
  %27 = load ptr, ptr %26, align 8
  tail call void %27(ptr noundef nonnull align 8 dereferenceable(16) %1, ptr noundef %24)
  br label %28

28:                                               ; preds = %.sink.split, %2, %9
  ret void
}